target datalayout = "e-m:e-p270:32:32-p271:32:32-p272:64:64-i64:64-i128:128-f80:128-n8:16:32:64-S128"
target triple = "x86_64-pc-linux-gnu"

%struct.JsonSemAction = type { ptr, ptr, ptr, ptr, ptr, ptr, ptr, ptr, ptr, ptr }
%struct.JsonLexContext = type { ptr, i64, i32, ptr, ptr, ptr, i8, i32, i32, i32, i32, ptr, ptr, ptr, i8, ptr, ptr }
%struct.JsonUniqueParsingState = type { ptr, ptr, ptr, i32, i8 }
%struct.HASHCTL = type { i64, i64, i64, i64, i64, i64, ptr, ptr, ptr, ptr, ptr, ptr }

@nullSemAction = external constant %struct.JsonSemAction, align 8
@.str.1 = private unnamed_addr constant [7 x i8] c"json.c\00", align 1
@.str.21 = private unnamed_addr constant [32 x i8] c"duplicate JSON object key value\00", align 1
@__func__.json_validate = private unnamed_addr constant [14 x i8] c"json_validate\00", align 1
@CurrentMemoryContext = external global ptr, align 8
@.str.48 = private unnamed_addr constant [22 x i8] c"json object hashtable\00", align 1

; Function Attrs: nounwind uwtable
define internal void @json_unique_check_init(ptr noundef %0) #0 {
  %2 = alloca ptr, align 8
  %3 = alloca %struct.HASHCTL, align 8
  store ptr %0, ptr %2, align 8
  call void @llvm.lifetime.start.p0(i64 96, ptr %3) #14
  call void @llvm.memset.p0.i64(ptr align 8 %3, i8 0, i64 96, i1 false)
  %4 = getelementptr inbounds nuw %struct.HASHCTL, ptr %3, i32 0, i32 4
  store i64 16, ptr %4, align 8
  %5 = getelementptr inbounds nuw %struct.HASHCTL, ptr %3, i32 0, i32 5
  store i64 16, ptr %5, align 8
  %6 = load ptr, ptr @CurrentMemoryContext, align 8
  %7 = getelementptr inbounds nuw %struct.HASHCTL, ptr %3, i32 0, i32 10
  store ptr %6, ptr %7, align 8
  %8 = getelementptr inbounds nuw %struct.HASHCTL, ptr %3, i32 0, i32 6
  store ptr @json_unique_hash, ptr %8, align 8
  %9 = getelementptr inbounds nuw %struct.HASHCTL, ptr %3, i32 0, i32 7
  store ptr @json_unique_hash_match, ptr %9, align 8
  %10 = call ptr @hash_create(ptr noundef @.str.48, i64 noundef 32, ptr noundef %3, i32 noundef 1224)
  %11 = load ptr, ptr %2, align 8
  store ptr %10, ptr %11, align 8
  call void @llvm.lifetime.end.p0(i64 96, ptr %3) #14
  ret void
}

; Function Attrs: nounwind uwtable
define dso_local zeroext i1 @json_validate(ptr noundef %0, i1 noundef zeroext %1, i1 noundef zeroext %2) #0 {
  %4 = alloca i1, align 1
  %5 = alloca ptr, align 8
  %6 = alloca i8, align 1
  %7 = alloca i8, align 1
  %8 = alloca %struct.JsonLexContext, align 8
  %9 = alloca %struct.JsonSemAction, align 8
  %10 = alloca %struct.JsonUniqueParsingState, align 8
  %11 = alloca i32, align 4
  %12 = alloca i32, align 4
  store ptr %0, ptr %5, align 8
  %13 = zext i1 %1 to i8
  store i8 %13, ptr %6, align 1
  %14 = zext i1 %2 to i8
  store i8 %14, ptr %7, align 1
  call void @llvm.lifetime.start.p0(i64 120, ptr %8) #14
  call void @llvm.lifetime.start.p0(i64 80, ptr %9) #14
  call void @llvm.memset.p0.i64(ptr align 8 %9, i8 0, i64 80, i1 false)
  call void @llvm.lifetime.start.p0(i64 32, ptr %10) #14
  call void @llvm.lifetime.start.p0(i64 4, ptr %11) #14
  %15 = load ptr, ptr %5, align 8
  %16 = load i8, ptr %6, align 1, !range !4, !noundef !5
  %17 = trunc i8 %16 to i1
  %18 = call ptr @makeJsonLexContext(ptr noundef %8, ptr noundef %15, i1 noundef zeroext %17)
  %19 = load i8, ptr %6, align 1, !range !4, !noundef !5
  %20 = trunc i8 %19 to i1
  br i1 %20, label %21, label %31

21:                                               ; preds = %3
  %22 = getelementptr inbounds nuw %struct.JsonUniqueParsingState, ptr %10, i32 0, i32 0
  store ptr %8, ptr %22, align 8
  %23 = getelementptr inbounds nuw %struct.JsonUniqueParsingState, ptr %10, i32 0, i32 2
  store ptr null, ptr %23, align 8
  %24 = getelementptr inbounds nuw %struct.JsonUniqueParsingState, ptr %10, i32 0, i32 3
  store i32 0, ptr %24, align 8
  %25 = getelementptr inbounds nuw %struct.JsonUniqueParsingState, ptr %10, i32 0, i32 4
  store i8 1, ptr %25, align 4
  %26 = getelementptr inbounds nuw %struct.JsonUniqueParsingState, ptr %10, i32 0, i32 1
  call void @json_unique_check_init(ptr noundef %26)
  %27 = getelementptr inbounds nuw %struct.JsonSemAction, ptr %9, i32 0, i32 0
  store ptr %10, ptr %27, align 8
  %28 = getelementptr inbounds nuw %struct.JsonSemAction, ptr %9, i32 0, i32 1
  store ptr @json_unique_object_start, ptr %28, align 8
  %29 = getelementptr inbounds nuw %struct.JsonSemAction, ptr %9, i32 0, i32 5
  store ptr @json_unique_object_field_start, ptr %29, align 8
  %30 = getelementptr inbounds nuw %struct.JsonSemAction, ptr %9, i32 0, i32 2
  store ptr @json_unique_object_end, ptr %30, align 8
  br label %31

31:                                               ; preds = %21, %3
  %32 = load i8, ptr %6, align 1, !range !4, !noundef !5
  %33 = trunc i8 %32 to i1
  br i1 %33, label %34, label %35

34:                                               ; preds = %31
  br label %36

35:                                               ; preds = %31
  br label %36

36:                                               ; preds = %35, %34
  %37 = phi ptr [ %9, %34 ], [ @nullSemAction, %35 ]
  %38 = call i32 @pg_parse_json(ptr noundef %8, ptr noundef %37)
  store i32 %38, ptr %11, align 4
  %39 = load i32, ptr %11, align 4
  %40 = icmp ne i32 %39, 0
  br i1 %40, label %41, label %47

41:                                               ; preds = %36
  %42 = load i8, ptr %7, align 1, !range !4, !noundef !5
  %43 = trunc i8 %42 to i1
  br i1 %43, label %44, label %46

44:                                               ; preds = %41
  %45 = load i32, ptr %11, align 4
  call void @json_errsave_error(i32 noundef %45, ptr noundef %8, ptr noundef null)
  br label %46

46:                                               ; preds = %44, %41
  store i1 false, ptr %4, align 1
  store i32 1, ptr %12, align 4
  br label %75

47:                                               ; preds = %36
  %48 = load i8, ptr %6, align 1, !range !4, !noundef !5
  %49 = trunc i8 %48 to i1
  br i1 %49, label %50, label %70

50:                                               ; preds = %47
  %51 = getelementptr inbounds nuw %struct.JsonUniqueParsingState, ptr %10, i32 0, i32 4
  %52 = load i8, ptr %51, align 4, !range !4, !noundef !5
  %53 = trunc i8 %52 to i1
  br i1 %53, label %70, label %54

54:                                               ; preds = %50
  %55 = load i8, ptr %7, align 1, !range !4, !noundef !5
  %56 = trunc i8 %55 to i1
  br i1 %56, label %57, label %69

57:                                               ; preds = %54
  br label %58

58:                                               ; preds = %57
  br i1 true, label %59, label %61

59:                                               ; preds = %58
  %60 = call zeroext i1 @errstart_cold(i32 noundef 21, ptr noundef null) #15
  br i1 %60, label %63, label %66

61:                                               ; preds = %58
  %62 = call zeroext i1 @errstart(i32 noundef 21, ptr noundef null)
  br i1 %62, label %63, label %66

63:                                               ; preds = %61, %59
  %64 = call i32 @errcode(i32 noundef 786562)
  %65 = call i32 (ptr, ...) @errmsg(ptr noundef @.str.21)
  call void @errfinish(ptr noundef @.str.1, i32 noundef 1850, ptr noundef @__func__.json_validate)
  br label %66

66:                                               ; preds = %63, %61, %59
  unreachable

67:                                               ; No predecessors!
  br label %68

68:                                               ; preds = %67
  br label %69

69:                                               ; preds = %68, %54
  store i1 false, ptr %4, align 1
  store i32 1, ptr %12, align 4
  br label %75

70:                                               ; preds = %50, %47
  %71 = load i8, ptr %6, align 1, !range !4, !noundef !5
  %72 = trunc i8 %71 to i1
  br i1 %72, label %73, label %74

73:                                               ; preds = %70
  call void @freeJsonLexContext(ptr noundef %8)
  br label %74

74:                                               ; preds = %73, %70
  store i1 true, ptr %4, align 1
  store i32 1, ptr %12, align 4
  br label %75

75:                                               ; preds = %74, %69, %46
  call void @llvm.lifetime.end.p0(i64 4, ptr %11) #14
  call void @llvm.lifetime.end.p0(i64 32, ptr %10) #14
  call void @llvm.lifetime.end.p0(i64 80, ptr %9) #14
  call void @llvm.lifetime.end.p0(i64 120, ptr %8) #14
  %76 = load i1, ptr %4, align 1
  ret i1 %76
}