; Function Attrs: nounwind uwtable
define dso_local noundef zeroext i1 @json_validate(ptr noundef %0, i1 noundef zeroext %1, i1 noundef zeroext %2) local_unnamed_addr #0 {
  %4 = alloca %struct.HASHCTL, align 8
  %5 = alloca %struct.JsonLexContext, align 8
  %6 = alloca %struct.JsonSemAction, align 8
  %7 = alloca %struct.JsonUniqueParsingState, align 8
  call void @llvm.lifetime.start.p0(i64 120, ptr nonnull %5) #10
  call void @llvm.lifetime.start.p0(i64 80, ptr nonnull %6) #10
  call void @llvm.memset.p0.i64(ptr noundef nonnull align 8 dereferenceable(80) %6, i8 0, i64 80, i1 false)
  call void @llvm.lifetime.start.p0(i64 32, ptr nonnull %7) #10
  %8 = call ptr @makeJsonLexContext(ptr noundef nonnull %5, ptr noundef %0, i1 noundef zeroext %1) #10
  br i1 %1, label %9, label %.thread

9:                                                ; preds = %3
  store ptr %5, ptr %7, align 8
  %10 = getelementptr inbounds nuw i8, ptr %7, i64 16
  store ptr null, ptr %10, align 8
  %11 = getelementptr inbounds nuw i8, ptr %7, i64 24
  store i32 0, ptr %11, align 8
  %12 = getelementptr inbounds nuw i8, ptr %7, i64 28
  store i8 1, ptr %12, align 4
  %13 = getelementptr inbounds nuw i8, ptr %7, i64 8
  call void @llvm.lifetime.start.p0(i64 96, ptr nonnull %4) #10
  call void @llvm.memset.p0.i64(ptr noundef nonnull align 8 dereferenceable(96) %4, i8 0, i64 96, i1 false)
  %14 = getelementptr inbounds nuw i8, ptr %4, i64 32
  store i64 16, ptr %14, align 8
  %15 = getelementptr inbounds nuw i8, ptr %4, i64 40
  store i64 16, ptr %15, align 8
  %16 = load ptr, ptr @CurrentMemoryContext, align 8
  %17 = getelementptr inbounds nuw i8, ptr %4, i64 80
  store ptr %16, ptr %17, align 8
  %18 = getelementptr inbounds nuw i8, ptr %4, i64 48
  store ptr @json_unique_hash, ptr %18, align 8
  %19 = getelementptr inbounds nuw i8, ptr %4, i64 56
  store ptr @json_unique_hash_match, ptr %19, align 8
  %20 = call ptr @hash_create(ptr noundef nonnull @.str.48, i64 noundef 32, ptr noundef nonnull %4, i32 noundef 1224) #10
  store ptr %20, ptr %13, align 8
  call void @llvm.lifetime.end.p0(i64 96, ptr nonnull %4) #10
  store ptr %7, ptr %6, align 8
  %21 = getelementptr inbounds nuw i8, ptr %6, i64 8
  store ptr @json_unique_object_start, ptr %21, align 8
  %22 = getelementptr inbounds nuw i8, ptr %6, i64 40
  store ptr @json_unique_object_field_start, ptr %22, align 8
  %23 = getelementptr inbounds nuw i8, ptr %6, i64 16
  store ptr @json_unique_object_end, ptr %23, align 8
  %24 = call i32 @pg_parse_json(ptr noundef nonnull %5, ptr noundef nonnull %6) #10
  %.not = icmp eq i32 %24, 0
  br i1 %.not, label %29, label %26

.thread:                                          ; preds = %3
  %25 = call i32 @pg_parse_json(ptr noundef nonnull %5, ptr noundef nonnull @nullSemAction) #10
  %.not12 = icmp eq i32 %25, 0
  br i1 %.not12, label %.critedge, label %26

26:                                               ; preds = %.thread, %9
  %27 = phi i32 [ %25, %.thread ], [ %24, %9 ]
  br i1 %2, label %28, label %.critedge

28:                                               ; preds = %26
  call void @json_errsave_error(i32 noundef %27, ptr noundef nonnull %5, ptr noundef null) #10
  br label %.critedge

29:                                               ; preds = %9
  %30 = load i8, ptr %12, align 4, !range !4, !noundef !5
  %31 = trunc nuw i8 %30 to i1
  br i1 %31, label %37, label %32

32:                                               ; preds = %29
  br i1 %2, label %33, label %.critedge

33:                                               ; preds = %32
  %34 = call zeroext i1 @errstart_cold(i32 noundef 21, ptr noundef null) #11
  call void @llvm.assume(i1 %34)
  %35 = call i32 @errcode(i32 noundef 786562) #10
  %36 = call i32 (ptr, ...) @errmsg(ptr noundef nonnull @.str.21) #10
  call void @errfinish(ptr noundef nonnull @.str.1, i32 noundef 1850, ptr noundef nonnull @__func__.json_validate) #10
  unreachable

37:                                               ; preds = %29
  call void @freeJsonLexContext(ptr noundef nonnull %5) #10
  br label %.critedge

.critedge:                                        ; preds = %.thread, %37, %32, %26, %28
  %.0 = phi i1 [ false, %28 ], [ false, %26 ], [ false, %32 ], [ true, %37 ], [ true, %.thread ]
  call void @llvm.lifetime.end.p0(i64 32, ptr nonnull %7) #10
  call void @llvm.lifetime.end.p0(i64 80, ptr nonnull %6) #10
  call void @llvm.lifetime.end.p0(i64 120, ptr nonnull %5) #10
  ret i1 %.0
}